; Function Attrs: mustprogress nounwind uwtable
define hidden void @_ZN20VLoopDependencyGraph8add_nodeEP7MemNodeR13GrowableArrayIiE(ptr noundef nonnull align 8 dereferenceable(88) %0, ptr noundef %1, ptr nocapture noundef nonnull readonly align 8 dereferenceable(24) %2) local_unnamed_addr #0 align 2 {
  %4 = load ptr, ptr %0, align 8
  %5 = tail call noundef ptr @_ZN8ArenaObjnwEmP5Arena(i64 noundef 24, ptr noundef %4) #13
  %6 = icmp eq ptr %5, null
  br i1 %6, label %30, label %7

7:                                                ; preds = %3
  %8 = load ptr, ptr %0, align 8
  store ptr %1, ptr %5, align 8
  %9 = getelementptr inbounds i8, ptr %5, i64 8
  %10 = load i32, ptr %2, align 8
  store i32 %10, ptr %9, align 8
  %11 = getelementptr inbounds i8, ptr %5, i64 16
  store ptr null, ptr %11, align 8
  %12 = load i32, ptr %2, align 8
  %13 = shl i32 %12, 2
  %14 = zext i32 %13 to i64
  %15 = add nuw nsw i64 %14, 7
  %16 = and i64 %15, 8589934584
  %17 = getelementptr inbounds i8, ptr %8, i64 40
  %18 = load ptr, ptr %17, align 8
  %19 = getelementptr inbounds i8, ptr %8, i64 32
  %20 = load ptr, ptr %19, align 8
  %21 = ptrtoint ptr %18 to i64
  %22 = ptrtoint ptr %20 to i64
  %23 = sub i64 %21, %22
  %.not.i.i.i = icmp ult i64 %23, %16
  br i1 %.not.i.i.i, label %26, label %24

24:                                               ; preds = %7
  %25 = getelementptr inbounds i8, ptr %20, i64 %16
  store ptr %25, ptr %19, align 8
  br label %_ZN20VLoopDependencyGraph14DependencyNodeC2EP7MemNodeR13GrowableArrayIiEP5Arena.exit

26:                                               ; preds = %7
  %27 = tail call noundef ptr @_ZN5Arena4growEmN17AllocFailStrategy13AllocFailEnumE(ptr noundef nonnull align 8 dereferenceable(48) %8, i64 noundef %16, i32 noundef 0) #13
  br label %_ZN20VLoopDependencyGraph14DependencyNodeC2EP7MemNodeR13GrowableArrayIiEP5Arena.exit

_ZN20VLoopDependencyGraph14DependencyNodeC2EP7MemNodeR13GrowableArrayIiEP5Arena.exit: ; preds = %24, %26
  %.0.i.i.i = phi ptr [ %20, %24 ], [ %27, %26 ]
  store ptr %.0.i.i.i, ptr %11, align 8
  %28 = getelementptr inbounds i8, ptr %2, i64 8
  %29 = load ptr, ptr %28, align 8
  tail call void @llvm.memcpy.p0.p0.i64(ptr align 4 %.0.i.i.i, ptr align 4 %29, i64 %14, i1 false)
  br label %30

30:                                               ; preds = %_ZN20VLoopDependencyGraph14DependencyNodeC2EP7MemNodeR13GrowableArrayIiEP5Arena.exit, %3
  %31 = getelementptr inbounds i8, ptr %0, i64 40
  %32 = getelementptr inbounds i8, ptr %0, i64 16
  %33 = load ptr, ptr %32, align 8
  %34 = getelementptr inbounds i8, ptr %33, i64 32
  %35 = load ptr, ptr %34, align 8
  %36 = getelementptr inbounds i8, ptr %1, i64 40
  %37 = load i32, ptr %36, align 8
  %38 = getelementptr inbounds i8, ptr %35, i64 8
  %39 = load ptr, ptr %38, align 8
  %40 = sext i32 %37 to i64
  %41 = getelementptr inbounds i32, ptr %39, i64 %40
  %42 = load i32, ptr %41, align 4
  %43 = load i32, ptr %31, align 8
  %.not.i = icmp sgt i32 %43, %42
  br i1 %.not.i, label %_ZN26GrowableArrayWithAllocatorIPN20VLoopDependencyGraph14DependencyNodeE13GrowableArrayIS2_EE11at_put_growEiRKS2_S7_.exit, label %44

44:                                               ; preds = %30
  %45 = getelementptr inbounds i8, ptr %0, i64 44
  %46 = load i32, ptr %45, align 4
  %.not12.i = icmp sgt i32 %46, %42
  br i1 %.not12.i, label %57, label %47

47:                                               ; preds = %44
  %48 = add nsw i32 %42, 1
  %49 = icmp sgt i32 %42, -1
  %50 = xor i32 %42, -2147483648
  %51 = and i32 %50, %48
  %52 = icmp eq i32 %51, 0
  %53 = and i1 %49, %52
  %54 = tail call range(i32 0, 33) i32 @llvm.ctlz.i32(i32 %48, i1 true)
  %55 = sub nuw nsw i32 32, %54
  %56 = shl nuw i32 1, %55
  %.0.i.i.i.i = select i1 %53, i32 %48, i32 %56
  tail call void @_ZN26GrowableArrayWithAllocatorIPN20VLoopDependencyGraph14DependencyNodeE13GrowableArrayIS2_EE9expand_toEi(ptr noundef nonnull align 8 dereferenceable(16) %31, i32 noundef %.0.i.i.i.i)
  %.pre.i = load i32, ptr %31, align 8
  br label %57

57:                                               ; preds = %47, %44
  %58 = phi i32 [ %.pre.i, %47 ], [ %43, %44 ]
  %59 = icmp slt i32 %58, %42
  br i1 %59, label %.lr.ph.i, label %._crit_edge.i

.lr.ph.i:                                         ; preds = %57
  %60 = getelementptr inbounds i8, ptr %0, i64 48
  %61 = sext i32 %58 to i64
  %wide.trip.count.i = sext i32 %42 to i64
  br label %62

62:                                               ; preds = %62, %.lr.ph.i
  %indvars.iv.i = phi i64 [ %61, %.lr.ph.i ], [ %indvars.iv.next.i, %62 ]
  %63 = load ptr, ptr %60, align 8
  %64 = getelementptr inbounds ptr, ptr %63, i64 %indvars.iv.i
  store ptr null, ptr %64, align 8
  %indvars.iv.next.i = add nsw i64 %indvars.iv.i, 1
  %exitcond.not.i = icmp eq i64 %indvars.iv.next.i, %wide.trip.count.i
  br i1 %exitcond.not.i, label %._crit_edge.i, label %62, !llvm.loop !12

._crit_edge.i:                                    ; preds = %62, %57
  %65 = add nsw i32 %42, 1
  store i32 %65, ptr %31, align 8
  br label %_ZN26GrowableArrayWithAllocatorIPN20VLoopDependencyGraph14DependencyNodeE13GrowableArrayIS2_EE11at_put_growEiRKS2_S7_.exit

_ZN26GrowableArrayWithAllocatorIPN20VLoopDependencyGraph14DependencyNodeE13GrowableArrayIS2_EE11at_put_growEiRKS2_S7_.exit: ; preds = %30, %._crit_edge.i
  %66 = getelementptr inbounds i8, ptr %0, i64 48
  %67 = load ptr, ptr %66, align 8
  %68 = sext i32 %42 to i64
  %69 = getelementptr inbounds ptr, ptr %67, i64 %68
  store ptr %5, ptr %69, align 8
  ret void
}